ccopy_reg
_reconstructor
p0
(crequests.models
Response
p1
c__builtin__
object
p2
Ntp3
Rp4
(dp5
S'cookies'
p6
g0
(crequests.cookies
RequestsCookieJar
p7
g2
Ntp8
Rp9
(dp10
S'_now'
p11
I1401910323
sS'_policy'
p12
(icookielib
DefaultCookiePolicy
p13
(dp14
S'strict_rfc2965_unverifiable'
p15
I01
sS'strict_ns_domain'
p16
I0
sS'_allowed_domains'
p17
NsS'rfc2109_as_netscape'
p18
NsS'rfc2965'
p19
I00
sS'strict_domain'
p20
I00
sg11
I1401910323
sS'strict_ns_set_path'
p21
I00
sS'strict_ns_unverifiable'
p22
I00
sS'strict_ns_set_initial_dollar'
p23
I00
sS'hide_cookie2'
p24
I00
sS'_blocked_domains'
p25
(tsS'netscape'
p26
I01
sbsS'_cookies'
p27
(dp28
S'api.twitter.com'
p29
(dp30
S'/1.1/followers'
p31
(dp32
S'lang'
p33
(icookielib
Cookie
p34
(dp35
S'comment'
p36
NsS'domain'
p37
g29
sS'name'
p38
g33
sS'domain_initial_dot'
p39
I00
sS'expires'
p40
NsS'value'
p41
S'en'
p42
sS'domain_specified'
p43
I00
sS'_rest'
p44
(dp45
sS'version'
p46
I0
sS'port_specified'
p47
I00
sS'rfc2109'
p48
I00
sS'discard'
p49
I01
sS'path_specified'
p50
I00
sS'path'
p51
g31
sS'port'
p52
NsS'comment_url'
p53
NsS'secure'
p54
I00
sbsssS'.twitter.com'
p55
(dp56
S'/'
p57
(dp58
S'guest_id'
p59
(icookielib
Cookie
p60
(dp61
g36
Nsg37
g55
sg38
g59
sg39
I01
sg40
I1464982324
sg41
S'v1%3A140191032411621791'
p62
sg43
I01
sg44
(dp63
sg46
I0
sg47
I00
sg48
I00
sg49
I00
sg50
I01
sg51
g57
sg52
Nsg53
Nsg54
I00
sbssssbsS'_content'
p64
S'{"ids":[298849545,991890858,1036252022,729254162,1531869690],"next_cursor":1470006984276306025,"next_cursor_str":"1470006984276306025","previous_cursor":-1470007211805040213,"previous_cursor_str":"-1470007211805040213"}'
p65
sS'encoding'
p66
S'utf-8'
p67
sS'url'
p68
Vhttps://api.twitter.com/1.1/followers/ids.json?cursor=1470007244887030825&count=5&screen_name=jcpenney
p69
sS'status_code'
p70
I200
sS'request'
p71
g0
(crequests.models
PreparedRequest
p72
g2
Ntp73
Rp74
(dp75
S'body'
p76
Nsg68
S'https://api.twitter.com/1.1/followers/ids.json?cursor=1470007244887030825&count=5&screen_name=jcpenney'
p77
sS'hooks'
p78
(dp79
S'response'
p80
(lp81
ssS'headers'
p82
g0
(crequests.structures
CaseInsensitiveDict
p83
g2
Ntp84
Rp85
(dp86
S'_store'
p87
(dp88
S'authorization'
p89
(S'Authorization'
p90
S'OAuth oauth_consumer_key="r4PswIeDCT2F1M1PF1x533Hsg", oauth_nonce="Njc1MzM5Mjk4MTIwMjE2MjMyMjk4Mzk3", oauth_signature="uQqGUv15XjVG%2BFCdYw%2BO6OJA%2BDo%3D", oauth_signature_method="HMAC-SHA1", oauth_timestamp="1401910323", oauth_token="506573217-9sPQIs0W4n61Pg38KWGbl4zgzEK9SXmEgNB9VwuT", oauth_version="1.0"'
p91
tp92
sS'accept-encoding'
p93
(S'Accept-Encoding'
p94
S'gzip, deflate'
p95
tp96
sS'accept'
p97
(S'Accept'
p98
S'*/*'
p99
tp100
sS'user-agent'
p101
(S'User-Agent'
p102
S'python-requests/2.3.0 CPython/2.7.2 Darwin/12.5.0'
p103
tp104
ssbsg27
g0
(g7
g2
Ntp105
Rp106
(dp107
g11
I1401910323
sg12
(icookielib
DefaultCookiePolicy
p108
(dp109
g15
I01
sg16
I0
sg17
Nsg18
Nsg19
I00
sg20
I00
sg11
I1401910323
sg21
I00
sg22
I00
sg23
I00
sg24
I00
sg25
(tsg26
I01
sbsg27
(dp110
sbsS'method'
p111
S'GET'
p112
sbsS'elapsed'
p113
cdatetime
timedelta
p114
(I0
I0
I471857
tp115
Rp116
sg82
g0
(g83
g2
Ntp117
Rp118
(dp119
g87
(dp120
S'status'
p121
(S'status'
p122
S'200 OK'
p123
tp124
sS'x-rate-limit-remaining'
p125
(S'x-rate-limit-remaining'
p126
S'11'
p127
tp128
sS'content-length'
p129
(S'content-length'
p130
S'146'
p131
tp132
sS'expires'
p133
(S'expires'
p134
S'Tue, 31 Mar 1981 05:00:00 GMT'
p135
tp136
sS'x-transaction'
p137
(S'x-transaction'
p138
S'9644dfb0df93fc62'
p139
tp140
sS'x-content-type-options'
p141
(S'x-content-type-options'
p142
S'nosniff'
p143
tp144
sS'content-encoding'
p145
(S'content-encoding'
p146
S'gzip'
p147
tp148
sS'set-cookie'
p149
(S'set-cookie'
p150
S'lang=en, guest_id=v1%3A140191032411621791; Domain=.twitter.com; Path=/; Expires=Fri, 03-Jun-2016 19:32:04 UTC'
p151
tp152
sS'strict-transport-security'
p153
(S'strict-transport-security'
p154
S'max-age=631138519'
p155
tp156
sS'x-access-level'
p157
(S'x-access-level'
p158
S'read'
p159
tp160
sS'server'
p161
(S'server'
p162
S'tfe'
p163
tp164
sS'last-modified'
p165
(S'last-modified'
p166
S'Wed, 04 Jun 2014 19:32:04 GMT'
p167
tp168
sS'x-xss-protection'
p169
(S'x-xss-protection'
p170
S'1; mode=block'
p171
tp172
sS'x-rate-limit-reset'
p173
(S'x-rate-limit-reset'
p174
S'1401910604'
p175
tp176
sS'pragma'
p177
(S'pragma'
p178
S'no-cache'
p179
tp180
sS'cache-control'
p181
(S'cache-control'
p182
S'no-cache, no-store, must-revalidate, pre-check=0, post-check=0'
p183
tp184
sS'date'
p185
(S'date'
p186
S'Wed, 04 Jun 2014 19:32:04 GMT'
p187
tp188
sS'x-rate-limit-limit'
p189
(S'x-rate-limit-limit'
p190
S'15'
p191
tp192
sS'x-frame-options'
p193
(S'x-frame-options'
p194
S'SAMEORIGIN'
p195
tp196
sS'content-type'
p197
(S'content-type'
p198
S'application/json;charset=utf-8'
p199
tp200
ssbsS'reason'
p201
S'OK'
p202
sS'history'
p203
(lp204
sb.